; Function Attrs: mustprogress uwtable
define internal fastcc void @"_ZZN3sat11npn3_finder20process_more_clausesER10ptr_vectorINS_6clauseEER9hashtableINS0_6binaryENS6_4hashENS6_2eqEERS5_INS0_7ternaryENSB_4hashENSB_2eqEERS5_INS0_10quaternaryENSG_4hashENSG_2eqEEENK3$_0clERS2_"(ptr nocapture noundef nonnull readonly align 8 dereferenceable(24) %this, ptr noundef nonnull align 4 dereferenceable(20) %c) unnamed_addr #7 align 2 {
entry:
  %ref.tmp = alloca %"struct.sat::npn3_finder::ternary", align 8
  %ref.tmp39 = alloca %"struct.sat::npn3_finder::quaternary", align 8
  %m_size.i = getelementptr inbounds i8, ptr %c, i64 4
  %0 = load i32, ptr %m_size.i, align 4
  switch i32 %0, label %if.end52 [
    i32 3, label %if.then
    i32 4, label %if.then38
  ]

if.then:                                          ; preds = %entry
  %1 = load ptr, ptr %this, align 8
  %m_lits.i = getelementptr inbounds i8, ptr %c, i64 20
  %agg.tmp.sroa.0.0.copyload = load i32, ptr %m_lits.i, align 4
  %arrayidx.i = getelementptr inbounds i8, ptr %c, i64 24
  %agg.tmp3.sroa.0.0.copyload = load i32, ptr %arrayidx.i, align 4
  %arrayidx.i30 = getelementptr inbounds i8, ptr %c, i64 28
  %agg.tmp5.sroa.0.0.copyload = load i32, ptr %arrayidx.i30, align 4
  store i32 %agg.tmp.sroa.0.0.copyload, ptr %ref.tmp, align 8
  %y.i = getelementptr inbounds i8, ptr %ref.tmp, i64 4
  store i32 %agg.tmp3.sroa.0.0.copyload, ptr %y.i, align 4
  %z.i = getelementptr inbounds i8, ptr %ref.tmp, i64 8
  store i32 %agg.tmp5.sroa.0.0.copyload, ptr %z.i, align 8
  %orig.i = getelementptr inbounds i8, ptr %ref.tmp, i64 16
  store ptr %c, ptr %orig.i, align 8
  %cmp.i = icmp ugt i32 %agg.tmp.sroa.0.0.copyload, %agg.tmp3.sroa.0.0.copyload
  br i1 %cmp.i, label %if.then.i, label %if.end.i

if.then.i:                                        ; preds = %if.then
  store i32 %agg.tmp3.sroa.0.0.copyload, ptr %ref.tmp, align 8
  store i32 %agg.tmp.sroa.0.0.copyload, ptr %y.i, align 4
  br label %if.end.i

if.end.i:                                         ; preds = %if.then.i, %if.then
  %2 = phi i32 [ %agg.tmp3.sroa.0.0.copyload, %if.then.i ], [ %agg.tmp.sroa.0.0.copyload, %if.then ]
  %3 = phi i32 [ %agg.tmp.sroa.0.0.copyload, %if.then.i ], [ %agg.tmp3.sroa.0.0.copyload, %if.then ]
  %cmp13.i = icmp ugt i32 %3, %agg.tmp5.sroa.0.0.copyload
  br i1 %cmp13.i, label %if.then14.i, label %if.end17.i

if.then14.i:                                      ; preds = %if.end.i
  store i32 %agg.tmp5.sroa.0.0.copyload, ptr %y.i, align 4
  store i32 %3, ptr %z.i, align 8
  br label %if.end17.i

if.end17.i:                                       ; preds = %if.then14.i, %if.end.i
  %4 = phi i32 [ %agg.tmp5.sroa.0.0.copyload, %if.then14.i ], [ %3, %if.end.i ]
  %cmp22.i = icmp ugt i32 %2, %4
  br i1 %cmp22.i, label %if.then23.i, label %_ZN3sat11npn3_finder7ternaryC2ENS_7literalES2_S2_PNS_6clauseE.exit

if.then23.i:                                      ; preds = %if.end17.i
  store i32 %4, ptr %ref.tmp, align 8
  store i32 %2, ptr %y.i, align 4
  br label %_ZN3sat11npn3_finder7ternaryC2ENS_7literalES2_S2_PNS_6clauseE.exit

_ZN3sat11npn3_finder7ternaryC2ENS_7literalES2_S2_PNS_6clauseE.exit: ; preds = %if.end17.i, %if.then23.i
  call void @_ZN14core_hashtableI18default_hash_entryIN3sat11npn3_finder7ternaryEENS3_4hashENS3_2eqEE6insertEOS3_(ptr noundef nonnull align 8 dereferenceable(20) %1, ptr noundef nonnull align 8 dereferenceable(24) %ref.tmp)
  %5 = getelementptr inbounds i8, ptr %this, i64 8
  %6 = load ptr, ptr %5, align 8
  %agg.tmp9.sroa.0.0.copyload = load i32, ptr %m_lits.i, align 4
  %agg.tmp11.sroa.0.0.copyload = load i32, ptr %arrayidx.i, align 4
  %agg.tmp13.sroa.0.0.copyload = load i32, ptr %arrayidx.i30, align 4
  %.val = load ptr, ptr %6, align 8
  %7 = getelementptr i8, ptr %6, i64 8
  %.val23 = load ptr, ptr %7, align 8
  call fastcc void @"_ZZN3sat11npn3_finder20process_more_clausesER10ptr_vectorINS_6clauseEER9hashtableINS0_6binaryENS6_4hashENS6_2eqEERS5_INS0_7ternaryENSB_4hashENSB_2eqEERS5_INS0_10quaternaryENSG_4hashENSG_2eqEEENK3$_1clENS_7literalESM_SM_PS2_"(ptr %.val, ptr %.val23, i32 %agg.tmp9.sroa.0.0.copyload, i32 %agg.tmp11.sroa.0.0.copyload, i32 %agg.tmp13.sroa.0.0.copyload, ptr noundef nonnull %c)
  %8 = load ptr, ptr %5, align 8
  %agg.tmp18.sroa.0.0.copyload = load i32, ptr %m_lits.i, align 4
  %agg.tmp20.sroa.0.0.copyload = load i32, ptr %arrayidx.i30, align 4
  %agg.tmp22.sroa.0.0.copyload = load i32, ptr %arrayidx.i, align 4
  %.val24 = load ptr, ptr %8, align 8
  %9 = getelementptr i8, ptr %8, i64 8
  %.val25 = load ptr, ptr %9, align 8
  call fastcc void @"_ZZN3sat11npn3_finder20process_more_clausesER10ptr_vectorINS_6clauseEER9hashtableINS0_6binaryENS6_4hashENS6_2eqEERS5_INS0_7ternaryENSB_4hashENSB_2eqEERS5_INS0_10quaternaryENSG_4hashENSG_2eqEEENK3$_1clENS_7literalESM_SM_PS2_"(ptr %.val24, ptr %.val25, i32 %agg.tmp18.sroa.0.0.copyload, i32 %agg.tmp20.sroa.0.0.copyload, i32 %agg.tmp22.sroa.0.0.copyload, ptr noundef nonnull %c)
  %10 = load ptr, ptr %5, align 8
  %agg.tmp27.sroa.0.0.copyload = load i32, ptr %arrayidx.i30, align 4
  %agg.tmp29.sroa.0.0.copyload = load i32, ptr %arrayidx.i, align 4
  %agg.tmp31.sroa.0.0.copyload = load i32, ptr %m_lits.i, align 4
  %.val26 = load ptr, ptr %10, align 8
  %11 = getelementptr i8, ptr %10, i64 8
  %.val27 = load ptr, ptr %11, align 8
  call fastcc void @"_ZZN3sat11npn3_finder20process_more_clausesER10ptr_vectorINS_6clauseEER9hashtableINS0_6binaryENS6_4hashENS6_2eqEERS5_INS0_7ternaryENSB_4hashENSB_2eqEERS5_INS0_10quaternaryENSG_4hashENSG_2eqEEENK3$_1clENS_7literalESM_SM_PS2_"(ptr %.val26, ptr %.val27, i32 %agg.tmp27.sroa.0.0.copyload, i32 %agg.tmp29.sroa.0.0.copyload, i32 %agg.tmp31.sroa.0.0.copyload, ptr noundef nonnull %c)
  br label %if.end52

if.then38:                                        ; preds = %entry
  %12 = getelementptr inbounds i8, ptr %this, i64 16
  %13 = load ptr, ptr %12, align 8
  %m_lits.i47 = getelementptr inbounds i8, ptr %c, i64 20
  %agg.tmp40.sroa.0.0.copyload = load i32, ptr %m_lits.i47, align 4
  %arrayidx.i49 = getelementptr inbounds i8, ptr %c, i64 24
  %agg.tmp42.sroa.0.0.copyload = load i32, ptr %arrayidx.i49, align 4
  %arrayidx.i51 = getelementptr inbounds i8, ptr %c, i64 28
  %agg.tmp44.sroa.0.0.copyload = load i32, ptr %arrayidx.i51, align 4
  %arrayidx.i53 = getelementptr inbounds i8, ptr %c, i64 32
  %agg.tmp46.sroa.0.0.copyload = load i32, ptr %arrayidx.i53, align 4
  store i32 %agg.tmp40.sroa.0.0.copyload, ptr %ref.tmp39, align 8
  %x.i = getelementptr inbounds i8, ptr %ref.tmp39, i64 4
  store i32 %agg.tmp42.sroa.0.0.copyload, ptr %x.i, align 4
  %y.i54 = getelementptr inbounds i8, ptr %ref.tmp39, i64 8
  store i32 %agg.tmp44.sroa.0.0.copyload, ptr %y.i54, align 8
  %z.i55 = getelementptr inbounds i8, ptr %ref.tmp39, i64 12
  store i32 %agg.tmp46.sroa.0.0.copyload, ptr %z.i55, align 4
  %orig.i56 = getelementptr inbounds i8, ptr %ref.tmp39, i64 16
  store ptr %c, ptr %orig.i56, align 8
  %cmp.i57 = icmp ugt i32 %agg.tmp40.sroa.0.0.copyload, %agg.tmp42.sroa.0.0.copyload
  br i1 %cmp.i57, label %if.then.i59, label %if.end.i58

if.then.i59:                                      ; preds = %if.then38
  store i32 %agg.tmp42.sroa.0.0.copyload, ptr %ref.tmp39, align 8
  store i32 %agg.tmp40.sroa.0.0.copyload, ptr %x.i, align 4
  br label %if.end.i58

if.end.i58:                                       ; preds = %if.then.i59, %if.then38
  %14 = phi i32 [ %agg.tmp40.sroa.0.0.copyload, %if.then.i59 ], [ %agg.tmp42.sroa.0.0.copyload, %if.then38 ]
  %15 = phi i32 [ %agg.tmp42.sroa.0.0.copyload, %if.then.i59 ], [ %agg.tmp40.sroa.0.0.copyload, %if.then38 ]
  %cmp14.i = icmp ugt i32 %agg.tmp44.sroa.0.0.copyload, %agg.tmp46.sroa.0.0.copyload
  br i1 %cmp14.i, label %if.then15.i, label %if.end18.i

if.then15.i:                                      ; preds = %if.end.i58
  store i32 %agg.tmp46.sroa.0.0.copyload, ptr %y.i54, align 8
  store i32 %agg.tmp44.sroa.0.0.copyload, ptr %z.i55, align 4
  br label %if.end18.i

if.end18.i:                                       ; preds = %if.then15.i, %if.end.i58
  %16 = phi i32 [ %agg.tmp44.sroa.0.0.copyload, %if.then15.i ], [ %agg.tmp46.sroa.0.0.copyload, %if.end.i58 ]
  %17 = phi i32 [ %agg.tmp46.sroa.0.0.copyload, %if.then15.i ], [ %agg.tmp44.sroa.0.0.copyload, %if.end.i58 ]
  %cmp23.i = icmp ugt i32 %15, %17
  br i1 %cmp23.i, label %if.then24.i, label %if.end27.i

if.then24.i:                                      ; preds = %if.end18.i
  store i32 %17, ptr %ref.tmp39, align 8
  store i32 %15, ptr %y.i54, align 8
  br label %if.end27.i

if.end27.i:                                       ; preds = %if.then24.i, %if.end18.i
  %18 = phi i32 [ %15, %if.then24.i ], [ %17, %if.end18.i ]
  %cmp32.i = icmp ugt i32 %14, %16
  br i1 %cmp32.i, label %if.then33.i, label %if.end36.i

if.then33.i:                                      ; preds = %if.end27.i
  store i32 %16, ptr %x.i, align 4
  store i32 %14, ptr %z.i55, align 4
  br label %if.end36.i

if.end36.i:                                       ; preds = %if.then33.i, %if.end27.i
  %19 = phi i32 [ %16, %if.then33.i ], [ %14, %if.end27.i ]
  %cmp41.i = icmp ugt i32 %19, %18
  br i1 %cmp41.i, label %if.then42.i, label %_ZN3sat11npn3_finder10quaternaryC2ENS_7literalES2_S2_S2_PNS_6clauseE.exit

if.then42.i:                                      ; preds = %if.end36.i
  store i32 %18, ptr %x.i, align 4
  store i32 %19, ptr %y.i54, align 8
  br label %_ZN3sat11npn3_finder10quaternaryC2ENS_7literalES2_S2_S2_PNS_6clauseE.exit

_ZN3sat11npn3_finder10quaternaryC2ENS_7literalES2_S2_S2_PNS_6clauseE.exit: ; preds = %if.end36.i, %if.then42.i
  call void @_ZN14core_hashtableI18default_hash_entryIN3sat11npn3_finder10quaternaryEENS3_4hashENS3_2eqEE6insertEOS3_(ptr noundef nonnull align 8 dereferenceable(20) %13, ptr noundef nonnull align 8 dereferenceable(24) %ref.tmp39)
  br label %if.end52

if.end52:                                         ; preds = %entry, %_ZN3sat11npn3_finder10quaternaryC2ENS_7literalES2_S2_S2_PNS_6clauseE.exit, %_ZN3sat11npn3_finder7ternaryC2ENS_7literalES2_S2_PNS_6clauseE.exit
  ret void
}